Microchip MPLAB XC8 Compiler V2.40

Linker command line:

-W-3 \
  --edf=C:\Program Files\Microchip\xc8\v2.40\pic\dat\20220703182018_en.msgs \
  -cn -h+dist/default/production\Adc_Rxd.X.production.sym \
  --cmf=dist/default/production\Adc_Rxd.X.production.cmf -z -Q16F877A \
  -oC:\Users\pampa\AppData\Local\Temp\xcAsmc4.4 --defsym=__MPLAB_BUILD=1 \
  --fixupoverflow=error -Mdist/default/production/Adc_Rxd.X.production.map \
  --md=C:\Users\pampa\AppData\Local\Temp\xcAsmc4.dat -E1 -ver=XC8 Compiler \
  --acfsm=1493 -ACODE=00h-07FFhx4 -ASTRCODE=00h-01FFFh -ASTRING=00h-0FFhx32 \
  -ACONST=00h-0FFhx32 -AENTRY=00h-0FFhx32 -ACOMMON=070h-07Fh \
  -ABANK0=020h-06Fh -ABANK1=0A0h-0EFh -ABANK2=0110h-016Fh \
  -ABANK3=0190h-01EFh -ARAM=020h-06Fh,0A0h-0EFh,0110h-016Fh,0190h-01EFh \
  -AABS1=020h-07Fh,0A0h-0EFh,0110h-016Fh,0190h-01EFh -ASFR0=00h-01Fh \
  -ASFR1=080h-09Fh -ASFR2=0100h-010Fh -ASFR3=0180h-018Fh \
  -ACONFIG=02007h-02007h -DCONFIG=2 -AIDLOC=02000h-02003h -DIDLOC=2 \
  -AEEDATA=00h-0FFh/02100h -peeprom_data=EEDATA -DEEDATA=2 -DCODE=2 \
  -DSTRCODE=2 -DSTRING=2 -DCONST=2 -DENTRY=2 \
  -preset_vec=00h,intentry,init,end_init -ppowerup=CODE -pcinit=CODE \
  -pfunctab=ENTRY -k C:\Users\pampa\AppData\Local\Temp\xcAsmc4.o \
  dist/default/production\Adc_Rxd.X.production.o 

Object code version is 3.11

Machine type is 16F877A



                Name                               Link     Load   Length Selector   Space Scale
C:\Users\pampa\AppData\Local\Temp\xcAsmc4.o
                end_init                              0        0        3        0       0
                config                             2007     2007        1        0       4
                idloc                              2000     2000        4        0       5
dist/default/production\Adc_Rxd.X.production.o
                cinit                               7F8      7F8        8      FF0       0
                config                             2007     2007        1        0       4
                idloc                              2000     2000        4        0       5
                text7                               6EE      6EE        8      DDC       0
                text6                               77E      77E       38      EFC       0
                text5                               6F6      6F6        F      DEC       0
                text4                               71C      71C       1A      E38       0
                text3                               755      755       29      EAA       0
                text2                               705      705       17      E0A       0
                text1                               736      736       1F      E6C       0
                maintext                            7B6      7B6       42      F6C       0
                cstackCOMMON                         70       70        E       70       1
                bssBANK0                             20       20        2       20       1
                strings                               3        3       13        6       0

TOTAL           Name                               Link     Load   Length     Space
        CLASS   CODE           
                end_init                              0        0        3         0
                cinit                               7F8      7F8        8         0
                text7                               6EE      6EE        8         0
                text6                               77E      77E       38         0
                text5                               6F6      6F6        F         0
                text4                               71C      71C       1A         0
                text3                               755      755       29         0
                text2                               705      705       17         0
                text1                               736      736       1F         0
                maintext                            7B6      7B6       42         0

        CLASS   STRCODE        

        CLASS   STRING         
                strings                               3        3       13         0

        CLASS   CONST          

        CLASS   ENTRY          

        CLASS   COMMON         
                cstackCOMMON                         70       70        E         1

        CLASS   BANK0          
                bssBANK0                             20       20        2         1

        CLASS   BANK1          

        CLASS   BANK2          

        CLASS   BANK3          

        CLASS   RAM            

        CLASS   ABS1           
                abs_s1                               7E       7E        2         1

        CLASS   SFR0           

        CLASS   SFR1           

        CLASS   SFR2           

        CLASS   SFR3           

        CLASS   CONFIG         
                config                             2007     2007        1         4

        CLASS   IDLOC          
                idloc                              2000     2000        4         5

        CLASS   EEDATA         

        CLASS   STACK          



SEGMENTS        Name                           Load    Length   Top    Selector   Space  Class     Delta

                reset_vec                      000000  000003  000003         0       0  CODE        2
                strings                        000003  000013  000016         6       0  STRING      2
                bssBANK0                       000020  000002  000022        20       1  BANK0       1
                cstackCOMMON                   000070  00000E  00007E        70       1  COMMON      1
                text7                          0006EE  000008  0006F6       DDC       0  CODE        2
                text5                          0006F6  00000F  000705       DEC       0  CODE        2
                text2                          000705  000017  00071C       E0A       0  CODE        2
                text4                          00071C  00001A  000736       E38       0  CODE        2
                text1                          000736  00001F  000755       E6C       0  CODE        2
                text3                          000755  000029  00077E       EAA       0  CODE        2
                text6                          00077E  000038  0007B6       EFC       0  CODE        2
                maintext                       0007B6  000042  0007F8       F6C       0  CODE        2
                cinit                          0007F8  000008  000800       FF0       0  CODE        2


UNUSED ADDRESS RANGES

        Name                Unused          Largest block    Delta
        BANK0            0022-006F             4E           1
        BANK1            00A0-00EF             50           1
        BANK2            0110-016F             60           1
        BANK3            0190-01EF             60           1
        CODE             0016-06ED            6D8           2
                         0800-1FFF            800
        CONST            0016-06ED            100           2
                         0800-1FFF            100
        EEDATA           2100-21FF            100           2
        ENTRY            0016-06ED            100           2
                         0800-1FFF            100
        RAM              0022-006F             4E           1
                         00A0-00EF             50
                         0110-016F             60
                         0190-01EF             60
        SFR0             0000-001F             20           1
        SFR1             0080-009F             20           1
        SFR2             0100-010F             10           1
        SFR3             0180-018F             10           1
        STRCODE          0016-06ED            6D8           2
                         0800-1FFF           1800
        STRING           0016-06ED            100           2
                         0800-1FFF            100

                                  Symbol Table

Received@i               cstackCOMMON 0078
Received@length          cstackCOMMON 0070
Received@ptr             cstackCOMMON 0077
Received@temp            cstackCOMMON 0076
_PORTC                   (abs)        0007
_PORTD                   (abs)        0008
_RCIF                    (abs)        0065
_RCREG                   (abs)        001A
_RCSTA                   (abs)        0018
_Received                text6        077E
_SPBRG                   (abs)        0099
_TRISC                   (abs)        0087
_TRISC6                  (abs)        043E
_TRISC7                  (abs)        043F
_TRISD                   (abs)        0088
_TXIF                    (abs)        0064
_TXREG                   (abs)        0019
_TXSTA                   (abs)        0098
_USART_Init              text5        06F6
_USART_Rx                text7        06EE
__Habs1                  abs1         0000
__Hbank0                 bank0        0000
__Hbank1                 bank1        0000
__Hbank2                 bank2        0000
__Hbank3                 bank3        0000
__HbssBANK0              bssBANK0     0000
__Hcinit                 cinit        0800
__Hclrtext               clrtext      0000
__Hcode                  code         0000
__Hcommon                common       0000
__Hconfig                config       2008
__HcstackCOMMON          cstackCOMMON 0000
__Heeprom_data           eeprom_data  0000
__Hend_init              end_init     0003
__Hfunctab               functab      0000
__Hidloc                 idloc        2004
__Hinit                  init         0000
__Hintentry              intentry     0000
__Hmaintext              maintext     0000
__Hpowerup               powerup      0000
__Hram                   ram          0000
__Hreset_vec             reset_vec    0000
__Hsfr0                  sfr0         0000
__Hsfr1                  sfr1         0000
__Hsfr2                  sfr2         0000
__Hsfr3                  sfr3         0000
__Hspace_0               (abs)        0800
__Hspace_1               (abs)        007E
__Hspace_2               (abs)        0000
__Hspace_3               (abs)        0000
__Hspace_4               (abs)        400F
__Hstack                 stack        0000
__Hstrings               strings      0000
__Htext                  text         0000
__Labs1                  abs1         0000
__Lbank0                 bank0        0000
__Lbank1                 bank1        0000
__Lbank2                 bank2        0000
__Lbank3                 bank3        0000
__LbssBANK0              bssBANK0     0000
__Lcinit                 cinit        07F8
__Lclrtext               clrtext      0000
__Lcode                  code         0000
__Lcommon                common       0000
__Lconfig                config       0000
__LcstackCOMMON          cstackCOMMON 0000
__Leeprom_data           eeprom_data  0000
__Lend_init              end_init     0000
__Lfunctab               functab      0000
__Lidloc                 idloc        0000
__Linit                  init         0000
__Lintentry              intentry     0000
__Lmaintext              maintext     0000
__Lpowerup               powerup      0000
__Lram                   ram          0000
__Lreset_vec             reset_vec    0000
__Lsfr0                  sfr0         0000
__Lsfr1                  sfr1         0000
__Lsfr2                  sfr2         0000
__Lsfr3                  sfr3         0000
__Lspace_0               (abs)        0000
__Lspace_1               (abs)        0000
__Lspace_2               (abs)        0000
__Lspace_3               (abs)        0000
__Lspace_4               (abs)        0000
__Lstack                 stack        0000
__Lstrings               strings      0000
__Ltext                  text         0000
__S0                     (abs)        0800
__S1                     (abs)        007E
__S3                     (abs)        0000
___int_sp                stack        0000
___latbits               (abs)        0002
___sp                    stack        0000
___stackhi               (abs)        0000
___stacklo               (abs)        0000
__end_of_Received        text6        07B6
__end_of_USART_Init      text5        0705
__end_of_USART_Rx        text7        06F6
__end_of__initialization cinit        07FC
__end_of__stringtab      strings      0009
__end_of_lcd_cmd         text4        0736
__end_of_lcd_data        text2        071C
__end_of_lcd_init        text3        077E
__end_of_lcd_str         text1        0755
__end_of_main            maintext     07F8
__initialization         cinit        07F8
__pbssBANK0              bssBANK0     0020
__pcstackCOMMON          cstackCOMMON 0070
__pmaintext              maintext     07B6
__pstrings               strings      0003
__ptext1                 text1        0736
__ptext2                 text2        0705
__ptext3                 text3        0755
__ptext4                 text4        071C
__ptext5                 text5        06F6
__ptext6                 text6        077E
__ptext7                 text7        06EE
__stringbase             strings      0008
__stringtab              strings      0003
_lcd_cmd                 text4        071C
_lcd_data                text2        0705
_lcd_init                text3        0755
_lcd_str                 text1        0736
_main                    maintext     07B6
btemp                    (abs)        007E
end_of_initialization    cinit        07FC
intlevel0                functab      0000
intlevel1                functab      0000
intlevel2                functab      0000
intlevel3                functab      0000
intlevel4                functab      0000
intlevel5                functab      0000
lcd_cmd@cmd              cstackCOMMON 0072
lcd_data@data1           cstackCOMMON 0072
lcd_str@str              cstackCOMMON 0074
main@Rx_data             cstackCOMMON 007A
reset_vec                reset_vec    0000
start                    init         0000
start_initialization     cinit        07F8
wtemp0                   (abs)        007E


MODULE INFORMATION

Module		Function		Class		Link	Load	Size
Lcd_8bit.c
		_lcd_cmd       		CODE           	071C	0000	26
		_lcd_data      		CODE           	0705	0000	23
		_lcd_str       		CODE           	0736	0000	31
		_lcd_init      		CODE           	0755	0000	41

Lcd_8bit.c estimated size: 121

Usart.c
		_USART_Rx      		CODE           	06EE	0000	8
		_USART_Init    		CODE           	06F6	0000	15

Usart.c estimated size: 23

shared
		__stringtab    		STRING         	0003	0000	6
		__initialization		CODE           	07F8	0000	4

shared estimated size: 10

Adc_Rxd.c
		_Received      		CODE           	077E	0000	56
		_main          		CODE           	07B6	0000	66

Adc_Rxd.c estimated size: 122

